; Function Attrs: mustprogress uwtable
define hidden void @_ZN4lean7literalC2ERKNS_3mpzE(ptr noundef nonnull writeonly align 8 captures(none) dereferenceable(8) initializes((0, 8)) %0, ptr noundef nonnull align 8 dereferenceable(16) %1) unnamed_addr #0 align 2 personality ptr @__gxx_personality_v0 {
  %3 = alloca ptr, align 8
  %4 = alloca %"class.lean::object_ref", align 8
  call void @llvm.lifetime.start.p0(i64 8, ptr nonnull %4) #16
  %5 = tail call noundef zeroext i1 @_ZNK4lean3mpz9is_size_tEv(ptr noundef nonnull align 8 dereferenceable(16) %1)
  br i1 %5, label %6, label %14

6:                                                ; preds = %2
  %7 = tail call noundef i64 @_ZNK4lean3mpz10get_size_tEv(ptr noundef nonnull align 8 dereferenceable(16) %1)
  %8 = icmp sgt i64 %7, -1
  br i1 %8, label %9, label %14

9:                                                ; preds = %6
  %10 = tail call noundef i64 @_ZNK4lean3mpz10get_size_tEv(ptr noundef nonnull align 8 dereferenceable(16) %1)
  %11 = shl i64 %10, 1
  %12 = or disjoint i64 %11, 1
  %13 = inttoptr i64 %12 to ptr
  br label %_ZN4lean10object_refD2Ev.exit

14:                                               ; preds = %6, %2
  %15 = tail call noundef ptr @_ZN4lean15mpz_to_nat_coreERKNS_3mpzE(ptr noundef nonnull align 8 dereferenceable(16) %1)
  br label %_ZN4lean10object_refD2Ev.exit

_ZN4lean10object_refD2Ev.exit:                    ; preds = %9, %14
  %.0.i = phi ptr [ %13, %9 ], [ %15, %14 ]
  call void @llvm.lifetime.start.p0(i64 8, ptr nonnull %3)
  store ptr %.0.i, ptr %3, align 8, !tbaa !3, !noalias !15
  call void @_ZN4lean8mk_cnstrEjjPP11lean_objectj(ptr dead_on_unwind nonnull writable sret(%"class.lean::object_ref") align 8 %4, i32 noundef 0, i32 noundef 1, ptr noundef nonnull %3, i32 noundef 0)
  call void @llvm.lifetime.end.p0(i64 8, ptr nonnull %3)
  %16 = load ptr, ptr %4, align 8, !tbaa !10
  store ptr %16, ptr %0, align 8, !tbaa !10
  call void @llvm.lifetime.end.p0(i64 8, ptr nonnull %4) #16
  ret void
}